target datalayout = "e-m:e-p270:32:32-p271:32:32-p272:64:64-i64:64-i128:128-f80:128-n8:16:32:64-S128"
target triple = "x86_64-pc-linux-gnu"

%class.FormatBufferBase = type { ptr }
%class.FormatBuffer = type { %class.FormatBufferBase, [8192 x i8] }

@.str.58 = private unnamed_addr constant [4 x i8] c"%s\0A\00", align 1
@.str.59 = private unnamed_addr constant [36 x i8] c" Actual:                  0x%016lx\0A\00", align 1

; Function Attrs: mustprogress nounwind uwtable
define linkonce_odr hidden noundef ptr @_ZN12FormatBufferILm8192EE6bufferEv(ptr noundef nonnull align 8 dereferenceable(8200) %0) #1 comdat align 2 {
  %2 = alloca ptr, align 8
  store ptr %0, ptr %2, align 8
  %3 = load ptr, ptr %2, align 8
  %4 = getelementptr inbounds %class.FormatBufferBase, ptr %3, i32 0, i32 0
  %5 = load ptr, ptr %4, align 8
  ret ptr %5
}

; Function Attrs: mustprogress nounwind uwtable
define linkonce_odr hidden noundef i64 @_Z3p2iPVKv(ptr noundef %0) #1 comdat {
  %2 = alloca ptr, align 8
  store ptr %0, ptr %2, align 8
  %3 = load ptr, ptr %2, align 8
  %4 = ptrtoint ptr %3 to i64
  ret i64 %4
}

; Function Attrs: mustprogress nounwind uwtable
define hidden void @_ZN17ShenandoahAsserts16print_rp_failureEPKcP17BoolObjectClosureS1_i(ptr noundef %0, ptr noundef %1, ptr noundef %2, i32 noundef %3) #1 align 2 {
  %5 = alloca ptr, align 8
  %6 = alloca ptr, align 8
  %7 = alloca ptr, align 8
  %8 = alloca i32, align 4
  %9 = alloca %class.FormatBuffer, align 8
  store ptr %0, ptr %5, align 8
  store ptr %1, ptr %6, align 8
  store ptr %2, ptr %7, align 8
  store i32 %3, ptr %8, align 4
  %10 = load ptr, ptr %5, align 8
  call void (ptr, ptr, ...) @_ZN12FormatBufferILm8192EEC2EPKcz(ptr noundef nonnull align 8 dereferenceable(8200) %9, ptr noundef @.str.58, ptr noundef %10)
  %11 = load ptr, ptr %6, align 8
  %12 = call noundef i64 @_Z3p2iPVKv(ptr noundef %11)
  call void (ptr, ptr, ...) @_ZN12FormatBufferILm8192EE6appendEPKcz(ptr noundef nonnull align 8 dereferenceable(8200) %9, ptr noundef @.str.59, i64 noundef %12)
  %13 = load ptr, ptr %7, align 8
  %14 = load i32, ptr %8, align 4
  %15 = call noundef ptr @_ZN12FormatBufferILm8192EE6bufferEv(ptr noundef nonnull align 8 dereferenceable(8200) %9)
  call void @_Z15report_vm_errorPKciS0_(ptr noundef %13, i32 noundef %14, ptr noundef %15) #11
  unreachable
}