; Function Attrs: mustprogress noreturn nounwind uwtable
define hidden void @_ZN17ShenandoahAsserts16print_rp_failureEPKcP17BoolObjectClosureS1_i(ptr noundef %0, ptr noundef %1, ptr noundef %2, i32 noundef %3) local_unnamed_addr #3 align 2 {
  %5 = alloca %class.FormatBuffer, align 8
  call void (ptr, ptr, ...) @_ZN12FormatBufferILm8192EEC2EPKcz(ptr noundef nonnull align 8 dereferenceable(8200) %5, ptr noundef nonnull @.str.58, ptr noundef %0)
  %6 = ptrtoint ptr %1 to i64
  call void (ptr, ptr, ...) @_ZN12FormatBufferILm8192EE6appendEPKcz(ptr noundef nonnull align 8 dereferenceable(8200) %5, ptr noundef nonnull @.str.59, i64 noundef %6)
  %7 = load ptr, ptr %5, align 8
  call void @_Z15report_vm_errorPKciS0_(ptr noundef %2, i32 noundef %3, ptr noundef %7) #12
  unreachable
}